(dp0
S'7d547f474b0668393e076c358e8a138e'
p1
(lp2
(lp3
S'a99df90046c6675165d815175b900be1'
p4
aaI00
asS'1d0d6eb4815de5e2b27d0c396abf9dc7'
p5
(lp6
(lp7
S'634f0ee018e70d40d1db4a4bf3a2d35d'
p8
aS'898d2f30e39b4fc143ebdf8c0b5c6a92'
p9
aaI00
asS'fbf93ab0370b314128ab9d62ec6b56a2'
p10
(lp11
(lp12
S'c15a6ffa5b1ffa0b5f8cd76f7be03a21'
p13
aS'bc299f78a143138bfe071c89dbbd21e0'
p14
aaI00
asS'e621da5de598c9321a1d505ea95e6a2d'
p15
(lp16
(lp17
S'97964e7a9e8eb9cf78f2e4d7b2ff34c7'
p18
aS'0158d0d6781fc4d493f243d4caa49747'
p19
aaI00
asS'1f1298186cac7c8e97ec901f30aa47f4'
p20
(lp21
(lp22
S'ba209a914b0d43e49df90df597464589'
p23
aaI00
asS'a7d90f72e1260762785b92a0c54fc4bb'
p24
(lp25
(lp26
S'b16999ca0ab7b07895dd8bf16c626934'
p27
aS'73b7ab51c5ca816e43b133a422664dd4'
p28
aaI00
asS'5fb22905eb7784e0f54167f83343e5e6'
p29
(lp30
(lp31
S'6f322d574618816aa2d6d1ceb4fd2551'
p32
aaI00
asS'61453e33a14f8eea4b059d3b040bd614'
p33
(lp34
(lp35
S'b9196305a3abd10773f2be6b0ebc0632'
p36
aS'cac2b7239d674bc871720db11b452c06'
p37
aaI00
asS'380743a89b0163cef563c61c988ca1fd'
p38
(lp39
(lp40
S'7cc27ec76df624c767d83b4a5d43fb17'
p41
aS'c18a32dc7dc8b612f47c3d21f6ccf5f0'
p42
aaI00
as.